; Function Attrs: nofree nosync nounwind memory(read, inaccessiblemem: none) uwtable
define i64 @Gia_LutComputeTruth6Simple_rec(ptr noundef %0, i32 noundef %1) local_unnamed_addr #0 {
  %3 = getelementptr i8, ptr %0, i64 32
  %.val = load ptr, ptr %3, align 8, !tbaa !3
  %4 = sext i32 %1 to i64
  %5 = getelementptr inbounds %struct.Gia_Obj_t_, ptr %.val, i64 %4
  %.val28 = load i64, ptr %5, align 4
  %6 = and i64 %.val28, 2305843005455597567
  %narrow.i.not = icmp eq i64 %6, 2305843005455597567
  br i1 %narrow.i.not, label %38, label %7

7:                                                ; preds = %2
  %8 = and i64 %.val28, 2684354559
  %narrow.i36.not = icmp eq i64 %8, 2684354559
  br i1 %narrow.i36.not, label %9, label %14

9:                                                ; preds = %7
  %10 = lshr i64 %.val28, 32
  %11 = and i64 %10, 536870911
  %12 = getelementptr inbounds nuw [6 x i64], ptr @s_Truth6, i64 0, i64 %11
  %13 = load i64, ptr %12, align 8, !tbaa !28
  br label %38

14:                                               ; preds = %7
  %15 = trunc i64 %.val28 to i32
  %16 = and i32 %15, 536870911
  %17 = sub nsw i32 %1, %16
  %18 = tail call i64 @Gia_LutComputeTruth6Simple_rec(ptr noundef nonnull %0, i32 noundef %17)
  %19 = lshr i64 %.val28, 32
  %20 = trunc nuw i64 %19 to i32
  %21 = and i32 %20, 536870911
  %22 = sub nsw i32 %1, %21
  %23 = tail call i64 @Gia_LutComputeTruth6Simple_rec(ptr noundef nonnull %0, i32 noundef %22)
  %24 = shl i32 %15, 2
  %25 = ashr i32 %24, 31
  %26 = sext i32 %25 to i64
  %27 = xor i64 %18, %26
  %28 = shl i64 %.val28, 2
  %29 = ashr i64 %28, 63
  %30 = xor i64 %23, %29
  %31 = and i64 %.val28, 2147483648
  %.not.i.i = icmp ne i64 %31, 0
  %32 = and i64 %.val28, 536870911
  %33 = icmp eq i64 %32, 536870911
  %narrow.i.not.i = or i1 %.not.i.i, %33
  br i1 %narrow.i.not.i, label %Gia_ObjIsXor.exit.thread, label %Gia_ObjIsXor.exit

Gia_ObjIsXor.exit.thread:                         ; preds = %14
  %34 = and i64 %30, %27
  br label %38

Gia_ObjIsXor.exit:                                ; preds = %14
  %35 = icmp samesign uge i32 %16, %21
  %36 = xor i64 %30, %27
  %37 = and i64 %30, %27
  %cond.fr = freeze i1 %35
  %spec.select = select i1 %cond.fr, i64 %37, i64 %36
  br label %38

38:                                               ; preds = %Gia_ObjIsXor.exit, %Gia_ObjIsXor.exit.thread, %2, %9
  %.0 = phi i64 [ %13, %9 ], [ 0, %2 ], [ %34, %Gia_ObjIsXor.exit.thread ], [ %spec.select, %Gia_ObjIsXor.exit ]
  ret i64 %.0
}